target datalayout = "e-m:e-p270:32:32-p271:32:32-p272:64:64-i64:64-i128:128-f80:128-n8:16:32:64-S128"
target triple = "x86_64-pc-linux-gnu"

%class.zstring = type { %class.buffer }
%class.buffer = type { ptr, i32, i32, [64 x i8] }

; Function Attrs: mustprogress nounwind uwtable
define linkonce_odr hidden noundef i32 @_ZNK6bufferIjLb1ELj16EE4sizeEv(ptr noundef nonnull align 8 dereferenceable(80) %0) #6 comdat align 2 {
  %2 = alloca ptr, align 8
  store ptr %0, ptr %2, align 8, !tbaa !21
  %3 = load ptr, ptr %2, align 8
  %4 = getelementptr inbounds nuw %class.buffer, ptr %3, i32 0, i32 1
  %5 = load i32, ptr %4, align 8, !tbaa !25
  ret i32 %5
}

; Function Attrs: mustprogress uwtable
define linkonce_odr hidden noundef i32 @_ZNK7zstringixEj(ptr noundef nonnull align 8 dereferenceable(80) %0, i32 noundef %1) #4 comdat align 2 {
  %3 = alloca ptr, align 8
  %4 = alloca i32, align 4
  store ptr %0, ptr %3, align 8, !tbaa !3
  store i32 %1, ptr %4, align 4, !tbaa !16
  %5 = load ptr, ptr %3, align 8
  %6 = getelementptr inbounds nuw %class.zstring, ptr %5, i32 0, i32 0
  %7 = load i32, ptr %4, align 4, !tbaa !16
  %8 = call noundef nonnull align 4 dereferenceable(4) ptr @_ZNK6bufferIjLb1ELj16EEixEj(ptr noundef nonnull align 8 dereferenceable(80) %6, i32 noundef %7)
  %9 = load i32, ptr %8, align 4, !tbaa !16
  ret i32 %9
}

; Function Attrs: mustprogress nounwind uwtable
define linkonce_odr hidden noundef nonnull align 4 dereferenceable(4) ptr @_ZNK6bufferIjLb1ELj16EEixEj(ptr noundef nonnull align 8 dereferenceable(80) %0, i32 noundef %1) #6 comdat align 2 {
  %3 = alloca ptr, align 8
  %4 = alloca i32, align 4
  store ptr %0, ptr %3, align 8, !tbaa !21
  store i32 %1, ptr %4, align 4, !tbaa !16
  %5 = load ptr, ptr %3, align 8
  %6 = getelementptr inbounds nuw %class.buffer, ptr %5, i32 0, i32 0
  %7 = load ptr, ptr %6, align 8, !tbaa !23
  %8 = load i32, ptr %4, align 4, !tbaa !16
  %9 = zext i32 %8 to i64
  %10 = getelementptr inbounds nuw i32, ptr %7, i64 %9
  ret ptr %10
}

; Function Attrs: mustprogress uwtable
define linkonce_odr hidden noundef i32 @_ZNK7zstring6lengthEv(ptr noundef nonnull align 8 dereferenceable(80) %0) #4 comdat align 2 {
  %2 = alloca ptr, align 8
  store ptr %0, ptr %2, align 8, !tbaa !3
  %3 = load ptr, ptr %2, align 8
  %4 = getelementptr inbounds nuw %class.zstring, ptr %3, i32 0, i32 0
  %5 = call noundef i32 @_ZNK6bufferIjLb1ELj16EE4sizeEv(ptr noundef nonnull align 8 dereferenceable(80) %4)
  ret i32 %5
}

; Function Attrs: mustprogress uwtable
define hidden noundef i32 @_ZNK7zstring8indexofuERKS_j(ptr noundef nonnull align 8 dereferenceable(80) %0, ptr noundef nonnull align 8 dereferenceable(80) %1, i32 noundef %2) #4 align 2 {
  %4 = alloca i32, align 4
  %5 = alloca ptr, align 8
  %6 = alloca ptr, align 8
  %7 = alloca i32, align 4
  %8 = alloca i32, align 4
  %9 = alloca i32, align 4
  %10 = alloca i32, align 4
  %11 = alloca i8, align 1
  %12 = alloca i32, align 4
  store ptr %0, ptr %5, align 8, !tbaa !3
  store ptr %1, ptr %6, align 8, !tbaa !3
  store i32 %2, ptr %7, align 4, !tbaa !16
  %13 = load ptr, ptr %5, align 8
  %14 = load i32, ptr %7, align 4, !tbaa !16
  %15 = call noundef i32 @_ZNK7zstring6lengthEv(ptr noundef nonnull align 8 dereferenceable(80) %13)
  %16 = icmp ule i32 %14, %15
  br i1 %16, label %17, label %23

17:                                               ; preds = %3
  %18 = load ptr, ptr %6, align 8, !tbaa !3
  %19 = call noundef i32 @_ZNK7zstring6lengthEv(ptr noundef nonnull align 8 dereferenceable(80) %18)
  %20 = icmp eq i32 %19, 0
  br i1 %20, label %21, label %23

21:                                               ; preds = %17
  %22 = load i32, ptr %7, align 4, !tbaa !16
  store i32 %22, ptr %4, align 4
  br label %98

23:                                               ; preds = %17, %3
  %24 = load i32, ptr %7, align 4, !tbaa !16
  %25 = call noundef i32 @_ZNK7zstring6lengthEv(ptr noundef nonnull align 8 dereferenceable(80) %13)
  %26 = icmp eq i32 %24, %25
  br i1 %26, label %27, label %28

27:                                               ; preds = %23
  store i32 -1, ptr %4, align 4
  br label %98

28:                                               ; preds = %23
  %29 = load i32, ptr %7, align 4, !tbaa !16
  %30 = load ptr, ptr %6, align 8, !tbaa !3
  %31 = call noundef i32 @_ZNK7zstring6lengthEv(ptr noundef nonnull align 8 dereferenceable(80) %30)
  %32 = load i32, ptr %7, align 4, !tbaa !16
  %33 = add i32 %31, %32
  %34 = icmp ugt i32 %29, %33
  br i1 %34, label %35, label %36

35:                                               ; preds = %28
  store i32 -1, ptr %4, align 4
  br label %98

36:                                               ; preds = %28
  %37 = load ptr, ptr %6, align 8, !tbaa !3
  %38 = call noundef i32 @_ZNK7zstring6lengthEv(ptr noundef nonnull align 8 dereferenceable(80) %37)
  %39 = load i32, ptr %7, align 4, !tbaa !16
  %40 = add i32 %38, %39
  %41 = call noundef i32 @_ZNK7zstring6lengthEv(ptr noundef nonnull align 8 dereferenceable(80) %13)
  %42 = icmp ugt i32 %40, %41
  br i1 %42, label %43, label %44

43:                                               ; preds = %36
  store i32 -1, ptr %4, align 4
  br label %98

44:                                               ; preds = %36
  call void @llvm.lifetime.start.p0(i64 4, ptr %8) #3
  %45 = call noundef i32 @_ZNK7zstring6lengthEv(ptr noundef nonnull align 8 dereferenceable(80) %13)
  %46 = load ptr, ptr %6, align 8, !tbaa !3
  %47 = call noundef i32 @_ZNK7zstring6lengthEv(ptr noundef nonnull align 8 dereferenceable(80) %46)
  %48 = sub i32 %45, %47
  store i32 %48, ptr %8, align 4, !tbaa !16
  call void @llvm.lifetime.start.p0(i64 4, ptr %9) #3
  %49 = load i32, ptr %7, align 4, !tbaa !16
  store i32 %49, ptr %9, align 4, !tbaa !16
  br label %50

50:                                               ; preds = %91, %44
  %51 = load i32, ptr %9, align 4, !tbaa !16
  %52 = load i32, ptr %8, align 4, !tbaa !16
  %53 = icmp ule i32 %51, %52
  br i1 %53, label %55, label %54

54:                                               ; preds = %50
  store i32 2, ptr %10, align 4
  br label %94

55:                                               ; preds = %50
  call void @llvm.lifetime.start.p0(i64 1, ptr %11) #3
  store i8 1, ptr %11, align 1, !tbaa !34
  call void @llvm.lifetime.start.p0(i64 4, ptr %12) #3
  store i32 0, ptr %12, align 4, !tbaa !16
  br label %56

56:                                               ; preds = %79, %55
  %57 = load i8, ptr %11, align 1, !tbaa !34, !range !36, !noundef !37
  %58 = trunc i8 %57 to i1
  br i1 %58, label %59, label %64

59:                                               ; preds = %56
  %60 = load i32, ptr %12, align 4, !tbaa !16
  %61 = load ptr, ptr %6, align 8, !tbaa !3
  %62 = call noundef i32 @_ZNK7zstring6lengthEv(ptr noundef nonnull align 8 dereferenceable(80) %61)
  %63 = icmp ult i32 %60, %62
  br label %64

64:                                               ; preds = %59, %56
  %65 = phi i1 [ false, %56 ], [ %63, %59 ]
  br i1 %65, label %67, label %66

66:                                               ; preds = %64
  store i32 5, ptr %10, align 4
  call void @llvm.lifetime.end.p0(i64 4, ptr %12) #3
  br label %82

67:                                               ; preds = %64
  %68 = getelementptr inbounds nuw %class.zstring, ptr %13, i32 0, i32 0
  %69 = load i32, ptr %9, align 4, !tbaa !16
  %70 = load i32, ptr %12, align 4, !tbaa !16
  %71 = add i32 %69, %70
  %72 = call noundef nonnull align 4 dereferenceable(4) ptr @_ZNK6bufferIjLb1ELj16EEixEj(ptr noundef nonnull align 8 dereferenceable(80) %68, i32 noundef %71)
  %73 = load i32, ptr %72, align 4, !tbaa !16
  %74 = load ptr, ptr %6, align 8, !tbaa !3
  %75 = load i32, ptr %12, align 4, !tbaa !16
  %76 = call noundef i32 @_ZNK7zstringixEj(ptr noundef nonnull align 8 dereferenceable(80) %74, i32 noundef %75)
  %77 = icmp eq i32 %73, %76
  %78 = zext i1 %77 to i8
  store i8 %78, ptr %11, align 1, !tbaa !34
  br label %79

79:                                               ; preds = %67
  %80 = load i32, ptr %12, align 4, !tbaa !16
  %81 = add i32 %80, 1
  store i32 %81, ptr %12, align 4, !tbaa !16
  br label %56, !llvm.loop !50

82:                                               ; preds = %66
  %83 = load i8, ptr %11, align 1, !tbaa !34, !range !36, !noundef !37
  %84 = trunc i8 %83 to i1
  br i1 %84, label %85, label %87

85:                                               ; preds = %82
  %86 = load i32, ptr %9, align 4, !tbaa !16
  store i32 %86, ptr %4, align 4
  store i32 1, ptr %10, align 4
  br label %88

87:                                               ; preds = %82
  store i32 0, ptr %10, align 4
  br label %88

88:                                               ; preds = %87, %85
  call void @llvm.lifetime.end.p0(i64 1, ptr %11) #3
  %89 = load i32, ptr %10, align 4
  switch i32 %89, label %94 [
    i32 0, label %90
  ]

90:                                               ; preds = %88
  br label %91

91:                                               ; preds = %90
  %92 = load i32, ptr %9, align 4, !tbaa !16
  %93 = add i32 %92, 1
  store i32 %93, ptr %9, align 4, !tbaa !16
  br label %50, !llvm.loop !51

94:                                               ; preds = %88, %54
  call void @llvm.lifetime.end.p0(i64 4, ptr %9) #3
  %95 = load i32, ptr %10, align 4
  switch i32 %95, label %97 [
    i32 2, label %96
  ]

96:                                               ; preds = %94
  store i32 -1, ptr %4, align 4
  store i32 1, ptr %10, align 4
  br label %97

97:                                               ; preds = %96, %94
  call void @llvm.lifetime.end.p0(i64 4, ptr %8) #3
  br label %98

98:                                               ; preds = %97, %43, %35, %27, %21
  %99 = load i32, ptr %4, align 4
  ret i32 %99
}