; Function Attrs: mustprogress nofree norecurse nosync nounwind willreturn memory(read, inaccessiblemem: none) uwtable
define hidden noundef i32 @_ZNK7zstring8indexofuERKS_j(ptr noundef nonnull readonly align 8 captures(none) dereferenceable(80) %0, ptr noundef nonnull readonly align 8 captures(none) dereferenceable(80) %1, i32 noundef %2) local_unnamed_addr #8 align 2 {
  %4 = getelementptr inbounds nuw i8, ptr %0, i64 8
  %5 = load i32, ptr %4, align 8, !tbaa !16
  %.not = icmp ule i32 %2, %5
  %6 = getelementptr inbounds nuw i8, ptr %1, i64 8
  %7 = load i32, ptr %6, align 8
  %8 = icmp eq i32 %7, 0
  %or.cond = select i1 %.not, i1 %8, i1 false
  br i1 %or.cond, label %.critedge.thread, label %9

9:                                                ; preds = %3
  %10 = icmp eq i32 %2, %5
  br i1 %10, label %.critedge.thread, label %11

11:                                               ; preds = %9
  %12 = xor i32 %2, -1
  %13 = icmp ugt i32 %7, %12
  %14 = add i32 %7, %2
  %15 = icmp ugt i32 %14, %5
  %or.cond40 = or i1 %13, %15
  br i1 %or.cond40, label %.critedge.thread, label %16

16:                                               ; preds = %11
  %17 = sub i32 %5, %7
  %.not3544 = icmp ugt i32 %2, %17
  br i1 %.not3544, label %.critedge.thread, label %.preheader.lr.ph

.preheader.lr.ph:                                 ; preds = %16
  %18 = load ptr, ptr %0, align 8
  %19 = load ptr, ptr %1, align 8
  %wide.trip.count = zext i32 %7 to i64
  br label %.preheader

.preheader:                                       ; preds = %.preheader.lr.ph, %30
  %.03045 = phi i32 [ %2, %.preheader.lr.ph ], [ %31, %30 ]
  br label %20

20:                                               ; preds = %.preheader, %21
  %indvars.iv = phi i64 [ 0, %.preheader ], [ %indvars.iv.next, %21 ]
  %exitcond.not = icmp eq i64 %indvars.iv, %wide.trip.count
  br i1 %exitcond.not, label %.critedge.thread, label %21

21:                                               ; preds = %20
  %22 = trunc nuw i64 %indvars.iv to i32
  %23 = add i32 %.03045, %22
  %24 = zext i32 %23 to i64
  %25 = getelementptr inbounds nuw i32, ptr %18, i64 %24
  %26 = load i32, ptr %25, align 4, !tbaa !9
  %27 = getelementptr inbounds nuw i32, ptr %19, i64 %indvars.iv
  %28 = load i32, ptr %27, align 4, !tbaa !9
  %29 = icmp eq i32 %26, %28
  %indvars.iv.next = add nuw nsw i64 %indvars.iv, 1
  br i1 %29, label %20, label %30, !llvm.loop !59

30:                                               ; preds = %21
  %31 = add i32 %.03045, 1
  %.not35 = icmp ugt i32 %31, %17
  br i1 %.not35, label %.critedge.thread, label %.preheader, !llvm.loop !60

.critedge.thread:                                 ; preds = %30, %20, %16, %3, %11, %9
  %.031 = phi i32 [ -1, %9 ], [ -1, %11 ], [ %2, %3 ], [ -1, %16 ], [ %.03045, %20 ], [ -1, %30 ]
  ret i32 %.031
}